target datalayout = "e-m:e-p270:32:32-p271:32:32-p272:64:64-i64:64-i128:128-f80:128-n8:16:32:64-S128"
target triple = "x86_64-pc-linux-gnu"

%union.pthread_mutex_t = type { %struct.__pthread_mutex_s }
%struct.__pthread_mutex_s = type { i32, i32, i32, i32, i32, i16, i16, %struct.__pthread_internal_list }
%struct.__pthread_internal_list = type { ptr, ptr }
%struct.stepd_step_task_info_t = type { %union.pthread_mutex_t, i32, ptr, i32, i32, i32, ptr, ptr, ptr, i32, i32, i32, i32, i32, i32, ptr, ptr, ptr, i8, i8, i8, i8, i32, i32, ptr }

@.str.1 = private unnamed_addr constant [17 x i8] c"slurmstepd_job.c\00", align 1
@.str.4 = private unnamed_addr constant [29 x i8] c"%s: pthread_mutex_init(): %m\00", align 1
@.str.14 = private unnamed_addr constant [29 x i8] c"%s: pthread_mutex_lock(): %m\00", align 1
@.str.15 = private unnamed_addr constant [31 x i8] c"%s: pthread_mutex_unlock(): %m\00", align 1
@__func__._task_info_create = private unnamed_addr constant [18 x i8] c"_task_info_create\00", align 1

; Function Attrs: nounwind uwtable
define internal ptr @_task_info_create(i32 noundef %0, i32 noundef %1, ptr noundef %2, ptr noundef %3, ptr noundef %4) #0 {
  %6 = alloca i32, align 4
  %7 = alloca i32, align 4
  %8 = alloca ptr, align 8
  %9 = alloca ptr, align 8
  %10 = alloca ptr, align 8
  %11 = alloca ptr, align 8
  %12 = alloca i32, align 4
  %13 = alloca i32, align 4
  %14 = alloca i32, align 4
  store i32 %0, ptr %6, align 4
  store i32 %1, ptr %7, align 4
  store ptr %2, ptr %8, align 8
  store ptr %3, ptr %9, align 8
  store ptr %4, ptr %10, align 8
  call void @llvm.lifetime.start.p0(i64 8, ptr %11) #9
  %15 = call ptr @slurm_xcalloc(i64 noundef 1, i64 noundef 168, i1 noundef zeroext true, i1 noundef zeroext false, ptr noundef @.str.1, i32 noundef 757, ptr noundef @__func__._task_info_create)
  store ptr %15, ptr %11, align 8
  br label %16

16:                                               ; preds = %5
  call void @llvm.lifetime.start.p0(i64 4, ptr %12) #9
  %17 = load ptr, ptr %11, align 8
  %18 = getelementptr inbounds nuw %struct.stepd_step_task_info_t, ptr %17, i32 0, i32 0
  %19 = call i32 @pthread_mutex_init(ptr noundef %18, ptr noundef null) #9
  store i32 %19, ptr %12, align 4
  %20 = load i32, ptr %12, align 4
  %21 = icmp ne i32 %20, 0
  br i1 %21, label %22, label %25

22:                                               ; preds = %16
  %23 = load i32, ptr %12, align 4
  %24 = call ptr @__errno_location() #10
  store i32 %23, ptr %24, align 4
  call void (ptr, ...) @fatal_abort(ptr noundef @.str.4, ptr noundef @__func__._task_info_create) #11
  unreachable

25:                                               ; preds = %16
  call void @llvm.lifetime.end.p0(i64 4, ptr %12) #9
  br label %26

26:                                               ; preds = %25
  br label %27

27:                                               ; preds = %26
  br label %28

28:                                               ; preds = %27
  call void @llvm.lifetime.start.p0(i64 4, ptr %13) #9
  %29 = load ptr, ptr %11, align 8
  %30 = getelementptr inbounds nuw %struct.stepd_step_task_info_t, ptr %29, i32 0, i32 0
  %31 = call i32 @pthread_mutex_lock(ptr noundef %30) #9
  store i32 %31, ptr %13, align 4
  %32 = load i32, ptr %13, align 4
  %33 = icmp ne i32 %32, 0
  br i1 %33, label %34, label %37

34:                                               ; preds = %28
  %35 = load i32, ptr %13, align 4
  %36 = call ptr @__errno_location() #10
  store i32 %35, ptr %36, align 4
  call void (ptr, ...) @fatal_abort(ptr noundef @.str.14, ptr noundef @__func__._task_info_create) #11
  unreachable

37:                                               ; preds = %28
  call void @llvm.lifetime.end.p0(i64 4, ptr %13) #9
  br label %38

38:                                               ; preds = %37
  br label %39

39:                                               ; preds = %38
  %40 = load ptr, ptr %11, align 8
  %41 = getelementptr inbounds nuw %struct.stepd_step_task_info_t, ptr %40, i32 0, i32 1
  store i32 0, ptr %41, align 8
  %42 = load i32, ptr %6, align 4
  %43 = load ptr, ptr %11, align 8
  %44 = getelementptr inbounds nuw %struct.stepd_step_task_info_t, ptr %43, i32 0, i32 3
  store i32 %42, ptr %44, align 8
  %45 = load i32, ptr %7, align 4
  %46 = load ptr, ptr %11, align 8
  %47 = getelementptr inbounds nuw %struct.stepd_step_task_info_t, ptr %46, i32 0, i32 4
  store i32 %45, ptr %47, align 4
  %48 = load ptr, ptr %11, align 8
  %49 = getelementptr inbounds nuw %struct.stepd_step_task_info_t, ptr %48, i32 0, i32 5
  store i32 -1, ptr %49, align 8
  %50 = load ptr, ptr %8, align 8
  %51 = load ptr, ptr %11, align 8
  %52 = getelementptr inbounds nuw %struct.stepd_step_task_info_t, ptr %51, i32 0, i32 6
  store ptr %50, ptr %52, align 8
  %53 = load ptr, ptr %9, align 8
  %54 = load ptr, ptr %11, align 8
  %55 = getelementptr inbounds nuw %struct.stepd_step_task_info_t, ptr %54, i32 0, i32 7
  store ptr %53, ptr %55, align 8
  %56 = load ptr, ptr %10, align 8
  %57 = load ptr, ptr %11, align 8
  %58 = getelementptr inbounds nuw %struct.stepd_step_task_info_t, ptr %57, i32 0, i32 8
  store ptr %56, ptr %58, align 8
  %59 = load ptr, ptr %11, align 8
  %60 = getelementptr inbounds nuw %struct.stepd_step_task_info_t, ptr %59, i32 0, i32 9
  store i32 -1, ptr %60, align 8
  %61 = load ptr, ptr %11, align 8
  %62 = getelementptr inbounds nuw %struct.stepd_step_task_info_t, ptr %61, i32 0, i32 12
  store i32 -1, ptr %62, align 4
  %63 = load ptr, ptr %11, align 8
  %64 = getelementptr inbounds nuw %struct.stepd_step_task_info_t, ptr %63, i32 0, i32 10
  store i32 -1, ptr %64, align 4
  %65 = load ptr, ptr %11, align 8
  %66 = getelementptr inbounds nuw %struct.stepd_step_task_info_t, ptr %65, i32 0, i32 13
  store i32 -1, ptr %66, align 8
  %67 = load ptr, ptr %11, align 8
  %68 = getelementptr inbounds nuw %struct.stepd_step_task_info_t, ptr %67, i32 0, i32 11
  store i32 -1, ptr %68, align 8
  %69 = load ptr, ptr %11, align 8
  %70 = getelementptr inbounds nuw %struct.stepd_step_task_info_t, ptr %69, i32 0, i32 14
  store i32 -1, ptr %70, align 4
  %71 = load ptr, ptr %11, align 8
  %72 = getelementptr inbounds nuw %struct.stepd_step_task_info_t, ptr %71, i32 0, i32 15
  store ptr null, ptr %72, align 8
  %73 = load ptr, ptr %11, align 8
  %74 = getelementptr inbounds nuw %struct.stepd_step_task_info_t, ptr %73, i32 0, i32 16
  store ptr null, ptr %74, align 8
  %75 = load ptr, ptr %11, align 8
  %76 = getelementptr inbounds nuw %struct.stepd_step_task_info_t, ptr %75, i32 0, i32 17
  store ptr null, ptr %76, align 8
  %77 = load ptr, ptr %11, align 8
  %78 = getelementptr inbounds nuw %struct.stepd_step_task_info_t, ptr %77, i32 0, i32 18
  store i8 0, ptr %78, align 8
  %79 = load ptr, ptr %11, align 8
  %80 = getelementptr inbounds nuw %struct.stepd_step_task_info_t, ptr %79, i32 0, i32 19
  store i8 0, ptr %80, align 1
  %81 = load ptr, ptr %11, align 8
  %82 = getelementptr inbounds nuw %struct.stepd_step_task_info_t, ptr %81, i32 0, i32 20
  store i8 0, ptr %82, align 2
  %83 = load ptr, ptr %11, align 8
  %84 = getelementptr inbounds nuw %struct.stepd_step_task_info_t, ptr %83, i32 0, i32 21
  store i8 0, ptr %84, align 1
  %85 = load ptr, ptr %11, align 8
  %86 = getelementptr inbounds nuw %struct.stepd_step_task_info_t, ptr %85, i32 0, i32 22
  store i32 -1, ptr %86, align 4
  %87 = load ptr, ptr %11, align 8
  %88 = getelementptr inbounds nuw %struct.stepd_step_task_info_t, ptr %87, i32 0, i32 23
  store i32 0, ptr %88, align 8
  %89 = load ptr, ptr %11, align 8
  %90 = getelementptr inbounds nuw %struct.stepd_step_task_info_t, ptr %89, i32 0, i32 24
  store ptr null, ptr %90, align 8
  br label %91

91:                                               ; preds = %39
  call void @llvm.lifetime.start.p0(i64 4, ptr %14) #9
  %92 = load ptr, ptr %11, align 8
  %93 = getelementptr inbounds nuw %struct.stepd_step_task_info_t, ptr %92, i32 0, i32 0
  %94 = call i32 @pthread_mutex_unlock(ptr noundef %93) #9
  store i32 %94, ptr %14, align 4
  %95 = load i32, ptr %14, align 4
  %96 = icmp ne i32 %95, 0
  br i1 %96, label %97, label %100

97:                                               ; preds = %91
  %98 = load i32, ptr %14, align 4
  %99 = call ptr @__errno_location() #10
  store i32 %98, ptr %99, align 4
  call void (ptr, ...) @fatal_abort(ptr noundef @.str.15, ptr noundef @__func__._task_info_create) #11
  unreachable

100:                                              ; preds = %91
  call void @llvm.lifetime.end.p0(i64 4, ptr %14) #9
  br label %101

101:                                              ; preds = %100
  br label %102

102:                                              ; preds = %101
  %103 = load ptr, ptr %11, align 8
  call void @llvm.lifetime.end.p0(i64 8, ptr %11) #9
  ret ptr %103
}