; Function Attrs: nounwind uwtable
define internal fastcc noundef ptr @_task_info_create(i32 noundef %0, i32 noundef %1, ptr noundef %2, ptr noundef %3, ptr noundef %4) unnamed_addr #0 {
  %6 = tail call ptr @slurm_xcalloc(i64 noundef 1, i64 noundef 168, i1 noundef zeroext true, i1 noundef zeroext false, ptr noundef nonnull @.str.1, i32 noundef 757, ptr noundef nonnull @__func__._task_info_create) #9
  %7 = tail call i32 @pthread_mutex_init(ptr noundef %6, ptr noundef null) #9
  %.not = icmp eq i32 %7, 0
  br i1 %.not, label %10, label %8

8:                                                ; preds = %5
  %9 = tail call ptr @__errno_location() #10
  store i32 %7, ptr %9, align 4
  tail call void (ptr, ...) @fatal_abort(ptr noundef nonnull @.str.4, ptr noundef nonnull @__func__._task_info_create) #11
  unreachable

10:                                               ; preds = %5
  %11 = tail call i32 @pthread_mutex_lock(ptr noundef %6) #9
  %.not39 = icmp eq i32 %11, 0
  br i1 %.not39, label %14, label %12

12:                                               ; preds = %10
  %13 = tail call ptr @__errno_location() #10
  store i32 %11, ptr %13, align 4
  tail call void (ptr, ...) @fatal_abort(ptr noundef nonnull @.str.14, ptr noundef nonnull @__func__._task_info_create) #11
  unreachable

14:                                               ; preds = %10
  %15 = getelementptr inbounds nuw i8, ptr %6, i64 40
  store i32 0, ptr %15, align 8
  %16 = getelementptr inbounds nuw i8, ptr %6, i64 56
  store i32 %0, ptr %16, align 8
  %17 = getelementptr inbounds nuw i8, ptr %6, i64 60
  store i32 %1, ptr %17, align 4
  %18 = getelementptr inbounds nuw i8, ptr %6, i64 64
  store i32 -1, ptr %18, align 8
  %19 = getelementptr inbounds nuw i8, ptr %6, i64 72
  store ptr %2, ptr %19, align 8
  %20 = getelementptr inbounds nuw i8, ptr %6, i64 80
  store ptr %3, ptr %20, align 8
  %21 = getelementptr inbounds nuw i8, ptr %6, i64 88
  store ptr %4, ptr %21, align 8
  %22 = getelementptr inbounds nuw i8, ptr %6, i64 96
  %23 = getelementptr inbounds nuw i8, ptr %6, i64 120
  tail call void @llvm.memset.p0.i64(ptr noundef nonnull align 8 dereferenceable(24) %22, i8 -1, i64 24, i1 false)
  %24 = getelementptr inbounds nuw i8, ptr %6, i64 148
  tail call void @llvm.memset.p0.i64(ptr noundef nonnull align 8 dereferenceable(28) %23, i8 0, i64 28, i1 false)
  store i32 -1, ptr %24, align 4
  %25 = getelementptr inbounds nuw i8, ptr %6, i64 152
  store i32 0, ptr %25, align 8
  %26 = getelementptr inbounds nuw i8, ptr %6, i64 160
  store ptr null, ptr %26, align 8
  %27 = tail call i32 @pthread_mutex_unlock(ptr noundef %6) #9
  %.not40 = icmp eq i32 %27, 0
  br i1 %.not40, label %30, label %28

28:                                               ; preds = %14
  %29 = tail call ptr @__errno_location() #10
  store i32 %27, ptr %29, align 4
  tail call void (ptr, ...) @fatal_abort(ptr noundef nonnull @.str.15, ptr noundef nonnull @__func__._task_info_create) #11
  unreachable

30:                                               ; preds = %14
  ret ptr %6
}